; Function Attrs: mustprogress uwtable
define hidden void @_ZN2cv6detail8tracking15online_boosting14BaseClassifierC2EiiPPNS2_25WeakClassifierHaarFeatureE(ptr noundef nonnull align 8 dereferenceable(84) initializes((0, 17), (20, 84)) %0, i32 noundef %1, i32 noundef %2, ptr noundef %3) unnamed_addr #3 align 2 personality ptr @__gxx_personality_v0 {
  %5 = alloca float, align 4
  %6 = alloca float, align 4
  store ptr getelementptr inbounds nuw inrange(-16, 16) (i8, ptr @_ZTVN2cv6detail8tracking15online_boosting14BaseClassifierE, i64 16), ptr %0, align 8, !tbaa !3
  %7 = getelementptr inbounds nuw i8, ptr %0, i64 32
  %8 = getelementptr inbounds nuw i8, ptr %0, i64 56
  %9 = getelementptr inbounds nuw i8, ptr %0, i64 20
  tail call void @llvm.memset.p0.i64(ptr noundef nonnull align 8 dereferenceable(48) %7, i8 0, i64 48, i1 false)
  store i32 %1, ptr %9, align 4, !tbaa !116
  %10 = getelementptr inbounds nuw i8, ptr %0, i64 80
  store i32 %2, ptr %10, align 8, !tbaa !117
  %11 = getelementptr inbounds nuw i8, ptr %0, i64 8
  store ptr %3, ptr %11, align 8, !tbaa !67
  %12 = getelementptr inbounds nuw i8, ptr %0, i64 16
  store i8 1, ptr %12, align 8, !tbaa !144
  %13 = getelementptr inbounds nuw i8, ptr %0, i64 24
  store i32 0, ptr %13, align 8, !tbaa !80
  %14 = getelementptr inbounds nuw i8, ptr %0, i64 28
  store i32 %1, ptr %14, align 4, !tbaa !121
  %15 = add nsw i32 %2, %1
  %16 = sext i32 %15 to i64
  call void @llvm.lifetime.start.p0(i64 4, ptr nonnull %5) #24
  store float 0.000000e+00, ptr %5, align 4, !tbaa !34
  invoke void @_ZNSt6vectorIfSaIfEE14_M_fill_assignEmRKf(ptr noundef nonnull align 8 dereferenceable(24) %7, i64 noundef %16, ptr noundef nonnull align 4 dereferenceable(4) %5)
          to label %_ZNSt6vectorIfSaIfEE6assignEmRKf.exit unwind label %20

_ZNSt6vectorIfSaIfEE6assignEmRKf.exit:            ; preds = %4
  call void @llvm.lifetime.end.p0(i64 4, ptr nonnull %5) #24
  call void @llvm.lifetime.start.p0(i64 4, ptr nonnull %6) #24
  store float 0.000000e+00, ptr %6, align 4, !tbaa !34
  invoke void @_ZNSt6vectorIfSaIfEE14_M_fill_assignEmRKf(ptr noundef nonnull align 8 dereferenceable(24) %8, i64 noundef %16, ptr noundef nonnull align 4 dereferenceable(4) %6)
          to label %_ZNSt6vectorIfSaIfEE6assignEmRKf.exit19 unwind label %22

_ZNSt6vectorIfSaIfEE6assignEmRKf.exit19:          ; preds = %_ZNSt6vectorIfSaIfEE6assignEmRKf.exit
  call void @llvm.lifetime.end.p0(i64 4, ptr nonnull %6) #24
  %17 = icmp sgt i32 %15, 0
  br i1 %17, label %.lr.ph, label %._crit_edge

.lr.ph:                                           ; preds = %_ZNSt6vectorIfSaIfEE6assignEmRKf.exit19
  %18 = load ptr, ptr %7, align 8, !tbaa !38
  %19 = load ptr, ptr %8, align 8, !tbaa !38
  %wide.trip.count = zext nneg i32 %15 to i64
  br label %24

._crit_edge:                                      ; preds = %24, %_ZNSt6vectorIfSaIfEE6assignEmRKf.exit19
  ret void

20:                                               ; preds = %4
  %21 = landingpad { ptr, i32 }
          cleanup
  call void @llvm.lifetime.end.p0(i64 4, ptr nonnull %5) #24
  br label %27

22:                                               ; preds = %_ZNSt6vectorIfSaIfEE6assignEmRKf.exit
  %23 = landingpad { ptr, i32 }
          cleanup
  call void @llvm.lifetime.end.p0(i64 4, ptr nonnull %6) #24
  br label %27

24:                                               ; preds = %.lr.ph, %24
  %indvars.iv = phi i64 [ 0, %.lr.ph ], [ %indvars.iv.next, %24 ]
  %25 = getelementptr inbounds nuw float, ptr %18, i64 %indvars.iv
  store float 1.000000e+00, ptr %25, align 4, !tbaa !34
  %26 = getelementptr inbounds nuw float, ptr %19, i64 %indvars.iv
  store float 1.000000e+00, ptr %26, align 4, !tbaa !34
  %indvars.iv.next = add nuw nsw i64 %indvars.iv, 1
  %exitcond.not = icmp eq i64 %indvars.iv.next, %wide.trip.count
  br i1 %exitcond.not, label %._crit_edge, label %24, !llvm.loop !147

27:                                               ; preds = %22, %20
  %.pn = phi { ptr, i32 } [ %23, %22 ], [ %21, %20 ]
  %28 = load ptr, ptr %8, align 8, !tbaa !38
  %.not.i.i.i = icmp eq ptr %28, null
  br i1 %.not.i.i.i, label %_ZNSt6vectorIfSaIfEED2Ev.exit, label %29

29:                                               ; preds = %27
  call void @_ZdlPv(ptr noundef nonnull %28) #26
  br label %_ZNSt6vectorIfSaIfEED2Ev.exit

_ZNSt6vectorIfSaIfEED2Ev.exit:                    ; preds = %27, %29
  %30 = load ptr, ptr %7, align 8, !tbaa !38
  %.not.i.i.i20 = icmp eq ptr %30, null
  br i1 %.not.i.i.i20, label %_ZNSt6vectorIfSaIfEED2Ev.exit21, label %31

31:                                               ; preds = %_ZNSt6vectorIfSaIfEED2Ev.exit
  call void @_ZdlPv(ptr noundef nonnull %30) #26
  br label %_ZNSt6vectorIfSaIfEED2Ev.exit21

_ZNSt6vectorIfSaIfEED2Ev.exit21:                  ; preds = %_ZNSt6vectorIfSaIfEED2Ev.exit, %31
  resume { ptr, i32 } %.pn
}